; Function Attrs: nounwind uwtable
define range(i32 -1, 1) i32 @H5Oclose_async(ptr noundef %0, ptr noundef %1, i32 noundef %2, i64 noundef %3, i64 noundef %4) local_unnamed_addr #0 {
  %6 = alloca ptr, align 8
  store ptr null, ptr %6, align 8
  %7 = load i8, ptr @H5_libinit_g, align 1
  %8 = trunc i8 %7 to i1
  %9 = load i8, ptr @H5_libterm_g, align 1
  %10 = trunc i8 %9 to i1
  %11 = select i1 %8, i1 true, i1 %10
  br i1 %11, label %19, label %12

12:                                               ; preds = %5
  %13 = tail call i32 @H5_init_library() #4
  %14 = icmp slt i32 %13, 0
  br i1 %14, label %15, label %19

15:                                               ; preds = %12
  %16 = load i64, ptr @H5E_FUNC_g, align 8
  %17 = load i64, ptr @H5E_CANTINIT_g, align 8
  %18 = tail call i32 (ptr, ptr, i32, i64, i64, ptr, ...) @H5E_printf_stack(ptr noundef nonnull @.str, ptr noundef nonnull @__func__.H5Oclose_async, i32 noundef 1934, i64 noundef %16, i64 noundef %17, ptr noundef nonnull @.str.1) #4
  br label %.thread56

19:                                               ; preds = %12, %5
  %20 = tail call i32 @H5CX_push() #4
  %21 = icmp slt i32 %20, 0
  br i1 %21, label %22, label %26

22:                                               ; preds = %19
  %23 = load i64, ptr @H5E_FUNC_g, align 8
  %24 = load i64, ptr @H5E_CANTSET_g, align 8
  %25 = tail call i32 (ptr, ptr, i32, i64, i64, ptr, ...) @H5E_printf_stack(ptr noundef nonnull @.str, ptr noundef nonnull @__func__.H5Oclose_async, i32 noundef 1934, i64 noundef %23, i64 noundef %24, ptr noundef nonnull @.str.2) #4
  br label %.thread56

26:                                               ; preds = %19
  %27 = tail call i32 @H5E_clear_stack() #4
  %28 = tail call i32 @H5I_get_type(i64 noundef %3) #4
  switch i32 %28, label %36 [
    i32 2, label %29
    i32 3, label %29
    i32 5, label %29
    i32 6, label %29
  ]

29:                                               ; preds = %26, %26, %26, %26
  %30 = tail call ptr @H5I_object(i64 noundef %3) #4
  %31 = icmp eq ptr %30, null
  br i1 %31, label %32, label %H5O__close_check_type.exit

32:                                               ; preds = %29
  %33 = load i64, ptr @H5E_ARGS_g, align 8
  %34 = load i64, ptr @H5E_BADVALUE_g, align 8
  %35 = tail call i32 (ptr, ptr, i32, i64, i64, ptr, ...) @H5E_printf_stack(ptr noundef nonnull @.str, ptr noundef nonnull @__func__.H5O__close_check_type, i32 noundef 1857, i64 noundef %33, i64 noundef %34, ptr noundef nonnull @.str.75) #4
  br label %36

36:                                               ; preds = %32, %26
  %37 = load i64, ptr @H5E_OHDR_g, align 8
  %38 = load i64, ptr @H5E_CANTRELEASE_g, align 8
  %39 = tail call i32 (ptr, ptr, i32, i64, i64, ptr, ...) @H5E_printf_stack(ptr noundef nonnull @.str, ptr noundef nonnull @__func__.H5Oclose_async, i32 noundef 1938, i64 noundef %37, i64 noundef %38, ptr noundef nonnull @.str.75) #4
  br label %.thread61

H5O__close_check_type.exit:                       ; preds = %29
  %.not = icmp eq i64 %4, 0
  br i1 %.not, label %51, label %40

40:                                               ; preds = %H5O__close_check_type.exit
  %41 = tail call ptr @H5VL_vol_object(i64 noundef %3) #4
  %42 = icmp eq ptr %41, null
  br i1 %42, label %43, label %47

43:                                               ; preds = %40
  %44 = load i64, ptr @H5E_OHDR_g, align 8
  %45 = load i64, ptr @H5E_CANTGET_g, align 8
  %46 = tail call i32 (ptr, ptr, i32, i64, i64, ptr, ...) @H5E_printf_stack(ptr noundef nonnull @.str, ptr noundef nonnull @__func__.H5Oclose_async, i32 noundef 1944, i64 noundef %44, i64 noundef %45, ptr noundef nonnull @.str.77) #4
  br label %.thread61

47:                                               ; preds = %40
  %48 = getelementptr inbounds i8, ptr %41, i64 8
  %49 = load ptr, ptr %48, align 8
  %50 = tail call i64 @H5VL_conn_inc_rc(ptr noundef %49) #4
  br label %51

51:                                               ; preds = %47, %H5O__close_check_type.exit
  %.031 = phi ptr [ %41, %47 ], [ null, %H5O__close_check_type.exit ]
  %.029 = phi ptr [ %49, %47 ], [ null, %H5O__close_check_type.exit ]
  %.028 = phi ptr [ %6, %47 ], [ null, %H5O__close_check_type.exit ]
  %52 = call i32 @H5I_dec_app_ref_async(i64 noundef %3, ptr noundef %.028) #4
  %53 = icmp slt i32 %52, 0
  br i1 %53, label %54, label %58

54:                                               ; preds = %51
  %55 = load i64, ptr @H5E_OHDR_g, align 8
  %56 = load i64, ptr @H5E_CANTCLOSEFILE_g, align 8
  %57 = call i32 (ptr, ptr, i32, i64, i64, ptr, ...) @H5E_printf_stack(ptr noundef nonnull @.str, ptr noundef nonnull @__func__.H5Oclose_async, i32 noundef 1959, i64 noundef %55, i64 noundef %56, ptr noundef nonnull @.str.78) #4
  br label %69

58:                                               ; preds = %51
  %59 = load ptr, ptr %6, align 8
  %.not34 = icmp eq ptr %59, null
  br i1 %.not34, label %69, label %60

60:                                               ; preds = %58
  %61 = getelementptr inbounds i8, ptr %.031, i64 8
  %62 = load ptr, ptr %61, align 8
  %63 = call i32 (i64, ptr, ptr, ptr, ptr, ...) @H5ES_insert(i64 noundef %4, ptr noundef %62, ptr noundef nonnull %59, ptr noundef nonnull @__func__.H5Oclose_async, ptr noundef nonnull @.str.35, ptr noundef nonnull @.str.6, ptr noundef %0, ptr noundef nonnull @.str.7, ptr noundef %1, ptr noundef nonnull @.str.8, i32 noundef %2, ptr noundef nonnull @.str.79, i64 noundef %3, ptr noundef nonnull @.str.12, i64 noundef %4) #4
  %64 = icmp slt i32 %63, 0
  br i1 %64, label %65, label %69

65:                                               ; preds = %60
  %66 = load i64, ptr @H5E_OHDR_g, align 8
  %67 = load i64, ptr @H5E_CANTINSERT_g, align 8
  %68 = call i32 (ptr, ptr, i32, i64, i64, ptr, ...) @H5E_printf_stack(ptr noundef nonnull @.str, ptr noundef nonnull @__func__.H5Oclose_async, i32 noundef 1967, i64 noundef %66, i64 noundef %67, ptr noundef nonnull @.str.14) #4
  br label %69

69:                                               ; preds = %58, %60, %65, %54
  %.026 = phi i32 [ -1, %54 ], [ -1, %65 ], [ 0, %60 ], [ 0, %58 ]
  %.0 = phi i1 [ true, %54 ], [ true, %65 ], [ false, %60 ], [ false, %58 ]
  %.not35 = icmp eq ptr %.029, null
  br i1 %.not35, label %78, label %70

70:                                               ; preds = %69
  %71 = call i64 @H5VL_conn_dec_rc(ptr noundef nonnull %.029) #4
  %72 = icmp slt i64 %71, 0
  br i1 %72, label %.thread64, label %78

.thread64:                                        ; preds = %70
  %73 = load i64, ptr @H5E_OHDR_g, align 8
  %74 = load i64, ptr @H5E_CANTDEC_g, align 8
  %75 = call i32 (ptr, ptr, i32, i64, i64, ptr, ...) @H5E_printf_stack(ptr noundef nonnull @.str, ptr noundef nonnull @__func__.H5Oclose_async, i32 noundef 1971, i64 noundef %73, i64 noundef %74, ptr noundef nonnull @.str.80) #4
  %76 = call i32 @H5CX_pop(i1 noundef zeroext true) #4
  br label %.thread56

.thread61:                                        ; preds = %36, %43
  %77 = tail call i32 @H5CX_pop(i1 noundef zeroext true) #4
  br label %.thread56

78:                                               ; preds = %70, %69
  %79 = call i32 @H5CX_pop(i1 noundef zeroext true) #4
  br i1 %.0, label %.thread56, label %81

.thread56:                                        ; preds = %22, %15, %.thread64, %.thread61, %78
  %.1274860 = phi i32 [ %.026, %78 ], [ -1, %.thread61 ], [ -1, %.thread64 ], [ -1, %15 ], [ -1, %22 ]
  %80 = call i32 @H5E_dump_api_stack() #4
  br label %81

81:                                               ; preds = %.thread56, %78
  %.1274859 = phi i32 [ %.1274860, %.thread56 ], [ %.026, %78 ]
  ret i32 %.1274859
}